target datalayout = "e-m:e-p270:32:32-p271:32:32-p272:64:64-i64:64-i128:128-f80:128-n8:16:32:64-S128"
target triple = "x86_64-pc-linux-gnu"

; Function Attrs: nounwind uwtable
define noalias ptr @H5allocate_memory(i64 noundef %0, i1 noundef zeroext %1) #0 {
  %3 = alloca ptr, align 8
  %4 = alloca i64, align 8
  %5 = alloca i8, align 1
  %6 = alloca ptr, align 8
  %7 = alloca i8, align 1
  store i64 %0, ptr %4, align 8
  %8 = zext i1 %1 to i8
  store i8 %8, ptr %5, align 1
  store ptr null, ptr %6, align 8
  store i8 0, ptr %7, align 1
  %9 = load i64, ptr %4, align 8
  %10 = icmp eq i64 0, %9
  br i1 %10, label %11, label %12

11:                                               ; preds = %2
  store ptr null, ptr %3, align 8
  br label %33

12:                                               ; preds = %2
  %13 = load i8, ptr %5, align 1
  %14 = trunc i8 %13 to i1
  br i1 %14, label %15, label %18

15:                                               ; preds = %12
  %16 = load i64, ptr %4, align 8
  %17 = call noalias ptr @calloc(i64 noundef 1, i64 noundef %16) #15
  store ptr %17, ptr %6, align 8
  br label %21

18:                                               ; preds = %12
  %19 = load i64, ptr %4, align 8
  %20 = call noalias ptr @malloc(i64 noundef %19) #13
  store ptr %20, ptr %6, align 8
  br label %21

21:                                               ; preds = %18, %15
  %22 = load i8, ptr %7, align 1
  %23 = trunc i8 %22 to i1
  %24 = xor i1 %23, true
  %25 = xor i1 %24, true
  %26 = zext i1 %25 to i32
  %27 = sext i32 %26 to i64
  %28 = icmp ne i64 %27, 0
  br i1 %28, label %29, label %31

29:                                               ; preds = %21
  %30 = call i32 @H5E_dump_api_stack()
  br label %31

31:                                               ; preds = %29, %21
  %32 = load ptr, ptr %6, align 8
  store ptr %32, ptr %3, align 8
  br label %33

33:                                               ; preds = %31, %11
  %34 = load ptr, ptr %3, align 8
  ret ptr %34
}