; Function Attrs: mustprogress nofree nounwind willreturn memory(inaccessiblemem: readwrite) uwtable
define noalias noundef ptr @H5allocate_memory(i64 noundef %0, i1 noundef zeroext %1) local_unnamed_addr #13 {
  %3 = icmp eq i64 %0, 0
  br i1 %3, label %9, label %4

4:                                                ; preds = %2
  br i1 %1, label %5, label %7

5:                                                ; preds = %4
  %6 = tail call noalias ptr @calloc(i64 noundef 1, i64 noundef %0) #28
  br label %9

7:                                                ; preds = %4
  %8 = tail call noalias ptr @malloc(i64 noundef %0) #26
  br label %9

9:                                                ; preds = %7, %5, %2
  %.0 = phi ptr [ null, %2 ], [ %6, %5 ], [ %8, %7 ]
  ret ptr %.0
}